; Function Attrs: mustprogress uwtable
define noundef range(i32 0, 2) i32 @_ZN6LibRaw11nikon_e2100Ev(ptr noundef nonnull readonly align 8 captures(none) dereferenceable(767680) %0) local_unnamed_addr #0 align 2 {
  %2 = alloca [12 x i8], align 1
  call void @llvm.lifetime.start.p0(i64 12, ptr nonnull %2) #13
  %3 = getelementptr inbounds nuw i8, ptr %0, i64 381416
  %4 = load ptr, ptr %3, align 8, !tbaa !6
  %5 = load ptr, ptr %4, align 8, !tbaa !71
  %6 = getelementptr inbounds nuw i8, ptr %5, i64 32
  %7 = load ptr, ptr %6, align 8
  %8 = tail call noundef i32 %7(ptr noundef nonnull align 8 dereferenceable(8) %4, i64 noundef 0, i32 noundef 0)
  %9 = getelementptr inbounds nuw i8, ptr %2, i64 2
  %10 = getelementptr inbounds nuw i8, ptr %2, i64 4
  %11 = getelementptr inbounds nuw i8, ptr %2, i64 7
  %12 = getelementptr inbounds nuw i8, ptr %2, i64 9
  %13 = getelementptr inbounds nuw i8, ptr %2, i64 1
  %14 = getelementptr inbounds nuw i8, ptr %2, i64 6
  %15 = getelementptr inbounds nuw i8, ptr %2, i64 8
  %16 = getelementptr inbounds nuw i8, ptr %2, i64 11
  br label %19

17:                                               ; preds = %19
  %18 = add nuw nsw i32 %.04, 1
  %exitcond.not = icmp eq i32 %18, 1024
  br i1 %exitcond.not, label %42, label %19, !llvm.loop !73

19:                                               ; preds = %1, %17
  %.04 = phi i32 [ 0, %1 ], [ %18, %17 ]
  %20 = load ptr, ptr %3, align 8, !tbaa !6
  %21 = load ptr, ptr %20, align 8, !tbaa !71
  %22 = getelementptr inbounds nuw i8, ptr %21, i64 24
  %23 = load ptr, ptr %22, align 8
  %24 = call noundef i32 %23(ptr noundef nonnull align 8 dereferenceable(8) %20, ptr noundef nonnull %2, i64 noundef 1, i64 noundef 12)
  %25 = load i8, ptr %9, align 1, !tbaa !75
  %26 = load i8, ptr %10, align 1, !tbaa !75
  %27 = and i8 %26, %25
  %28 = load i8, ptr %11, align 1, !tbaa !75
  %29 = and i8 %27, %28
  %30 = load i8, ptr %12, align 1, !tbaa !75
  %31 = and i8 %29, %30
  %32 = lshr i8 %31, 4
  %33 = load i8, ptr %13, align 1, !tbaa !75
  %34 = load i8, ptr %14, align 1, !tbaa !75
  %35 = load i8, ptr %15, align 1, !tbaa !75
  %36 = load i8, ptr %16, align 1, !tbaa !75
  %37 = and i8 %33, 3
  %38 = and i8 %37, %32
  %39 = and i8 %38, %34
  %40 = and i8 %39, %35
  %41 = and i8 %40, %36
  %.not = icmp eq i8 %41, 3
  br i1 %.not, label %17, label %42

42:                                               ; preds = %17, %19
  %.03 = phi i32 [ 0, %19 ], [ 1, %17 ]
  call void @llvm.lifetime.end.p0(i64 12, ptr nonnull %2) #13
  ret i32 %.03
}